; Function Attrs: nounwind uwtable
define noalias noundef ptr @Acec_FindXorRoots(ptr noundef readonly captures(none) %0, ptr noundef readonly captures(none) %1) local_unnamed_addr #0 {
  %3 = tail call ptr @Acec_MapXorIns(ptr noundef %0, ptr noundef %1)
  %4 = tail call noalias dereferenceable_or_null(16) ptr @malloc(i64 noundef 16) #20
  %5 = getelementptr inbounds nuw i8, ptr %4, i64 4
  store i32 0, ptr %5, align 4, !tbaa !28
  store i32 100, ptr %4, align 8, !tbaa !33
  %6 = tail call noalias dereferenceable_or_null(400) ptr @malloc(i64 noundef 400) #20
  %7 = getelementptr inbounds nuw i8, ptr %4, i64 8
  store ptr %6, ptr %7, align 8, !tbaa !29
  %8 = getelementptr i8, ptr %1, i64 4
  %.val17 = load i32, ptr %8, align 4, !tbaa !28
  %9 = icmp sgt i32 %.val17, 0
  br i1 %9, label %.lr.ph, label %._crit_edge

.lr.ph:                                           ; preds = %2
  %10 = getelementptr i8, ptr %1, i64 8
  %11 = getelementptr i8, ptr %3, i64 8
  %.val15 = load ptr, ptr %11, align 8, !tbaa !41
  br label %12

12:                                               ; preds = %.lr.ph, %Vec_IntPushUniqueOrder.exit
  %.val24 = phi i32 [ %.val17, %.lr.ph ], [ %.val, %Vec_IntPushUniqueOrder.exit ]
  %13 = phi ptr [ %6, %.lr.ph ], [ %.pre.i22, %Vec_IntPushUniqueOrder.exit ]
  %14 = phi ptr [ %6, %.lr.ph ], [ %63, %Vec_IntPushUniqueOrder.exit ]
  %indvars.iv = phi i64 [ 0, %.lr.ph ], [ %indvars.iv.next, %Vec_IntPushUniqueOrder.exit ]
  %15 = phi i64 [ 0, %.lr.ph ], [ %64, %Vec_IntPushUniqueOrder.exit ]
  %.val14 = load ptr, ptr %10, align 8, !tbaa !29
  %16 = and i64 %15, 4294967292
  %17 = getelementptr inbounds nuw i32, ptr %.val14, i64 %16
  %18 = load i32, ptr %17, align 4, !tbaa !30
  %19 = ashr i32 %18, 5
  %20 = sext i32 %19 to i64
  %21 = getelementptr inbounds i32, ptr %.val15, i64 %20
  %22 = load i32, ptr %21, align 4, !tbaa !30
  %23 = and i32 %18, 31
  %24 = shl nuw i32 1, %23
  %25 = and i32 %22, %24
  %.not = icmp eq i32 %25, 0
  br i1 %.not, label %26, label %Vec_IntPushUniqueOrder.exit

26:                                               ; preds = %12
  %27 = load i32, ptr %5, align 4, !tbaa !28
  %28 = icmp sgt i32 %27, 0
  br i1 %28, label %.lr.ph.i, label %._crit_edge.i

.lr.ph.i:                                         ; preds = %26
  %wide.trip.count.i = zext nneg i32 %27 to i64
  br label %30

29:                                               ; preds = %30
  %indvars.iv.next.i = add nuw nsw i64 %indvars.iv.i, 1
  %exitcond.not.i = icmp eq i64 %indvars.iv.next.i, %wide.trip.count.i
  br i1 %exitcond.not.i, label %._crit_edge.i, label %30, !llvm.loop !48

30:                                               ; preds = %29, %.lr.ph.i
  %indvars.iv.i = phi i64 [ 0, %.lr.ph.i ], [ %indvars.iv.next.i, %29 ]
  %31 = getelementptr inbounds nuw i32, ptr %14, i64 %indvars.iv.i
  %32 = load i32, ptr %31, align 4, !tbaa !30
  %33 = icmp eq i32 %32, %18
  br i1 %33, label %Vec_IntPushUniqueOrder.exit, label %29

._crit_edge.i:                                    ; preds = %29, %26
  %34 = load i32, ptr %4, align 8, !tbaa !33
  %35 = icmp eq i32 %27, %34
  br i1 %35, label %36, label %Vec_IntGrow.exit23.i.i

36:                                               ; preds = %._crit_edge.i
  %37 = icmp slt i32 %27, 16
  br i1 %37, label %38, label %43

38:                                               ; preds = %36
  %.not9.i.i.i = icmp eq ptr %13, null
  br i1 %.not9.i.i.i, label %41, label %39

39:                                               ; preds = %38
  %40 = tail call dereferenceable_or_null(64) ptr @realloc(ptr noundef nonnull %13, i64 noundef 64) #22
  br label %Vec_IntGrow.exit23thread-pre-split.i.i

41:                                               ; preds = %38
  %42 = tail call noalias dereferenceable_or_null(64) ptr @malloc(i64 noundef 64) #20
  br label %Vec_IntGrow.exit23thread-pre-split.i.i

43:                                               ; preds = %36
  %44 = shl nuw nsw i32 %27, 1
  %.not9.i22.i.i = icmp eq ptr %13, null
  %45 = zext nneg i32 %44 to i64
  %46 = shl nuw nsw i64 %45, 2
  br i1 %.not9.i22.i.i, label %49, label %47

47:                                               ; preds = %43
  %48 = tail call ptr @realloc(ptr noundef nonnull %13, i64 noundef %46) #22
  br label %Vec_IntGrow.exit23thread-pre-split.i.i

49:                                               ; preds = %43
  %50 = tail call noalias ptr @malloc(i64 noundef %46) #20
  br label %Vec_IntGrow.exit23thread-pre-split.i.i

Vec_IntGrow.exit23thread-pre-split.i.i:           ; preds = %47, %49, %39, %41
  %storemerge = phi ptr [ %40, %39 ], [ %42, %41 ], [ %48, %47 ], [ %50, %49 ]
  %.sink.i.i = phi i32 [ 16, %39 ], [ 16, %41 ], [ %44, %47 ], [ %44, %49 ]
  store ptr %storemerge, ptr %7, align 8, !tbaa !29
  store i32 %.sink.i.i, ptr %4, align 8, !tbaa !33
  br label %Vec_IntGrow.exit23.i.i

Vec_IntGrow.exit23.i.i:                           ; preds = %._crit_edge.i, %Vec_IntGrow.exit23thread-pre-split.i.i
  %.pre.i23 = phi ptr [ %storemerge, %Vec_IntGrow.exit23thread-pre-split.i.i ], [ %13, %._crit_edge.i ]
  %51 = add nsw i32 %27, 1
  store i32 %51, ptr %5, align 4, !tbaa !28
  br i1 %28, label %.lr.ph.i.i, label %Vec_IntPushOrder.exit.i

.lr.ph.i.i:                                       ; preds = %Vec_IntGrow.exit23.i.i
  %52 = zext nneg i32 %27 to i64
  br label %53

53:                                               ; preds = %57, %.lr.ph.i.i
  %indvars.iv.i.i = phi i64 [ %52, %.lr.ph.i.i ], [ %indvars.iv.next.i.i, %57 ]
  %indvars.iv.next.i.i = add nsw i64 %indvars.iv.i.i, -1
  %54 = getelementptr inbounds nuw i32, ptr %.pre.i23, i64 %indvars.iv.next.i.i
  %55 = load i32, ptr %54, align 4, !tbaa !30
  %56 = icmp sgt i32 %55, %18
  br i1 %56, label %57, label %._crit_edge.loopexit.split.loop.exit.i.i

57:                                               ; preds = %53
  %58 = getelementptr inbounds nuw i32, ptr %.pre.i23, i64 %indvars.iv.i.i
  store i32 %55, ptr %58, align 4, !tbaa !30
  %59 = icmp samesign ugt i64 %indvars.iv.i.i, 1
  br i1 %59, label %53, label %Vec_IntPushOrder.exit.i, !llvm.loop !49

._crit_edge.loopexit.split.loop.exit.i.i:         ; preds = %53
  %60 = trunc nuw nsw i64 %indvars.iv.i.i to i32
  br label %Vec_IntPushOrder.exit.i

Vec_IntPushOrder.exit.i:                          ; preds = %57, %._crit_edge.loopexit.split.loop.exit.i.i, %Vec_IntGrow.exit23.i.i
  %.0.in.lcssa.i.i = phi i32 [ %27, %Vec_IntGrow.exit23.i.i ], [ %60, %._crit_edge.loopexit.split.loop.exit.i.i ], [ 0, %57 ]
  %61 = sext i32 %.0.in.lcssa.i.i to i64
  %62 = getelementptr inbounds i32, ptr %.pre.i23, i64 %61
  store i32 %18, ptr %62, align 4, !tbaa !30
  %.val.pre = load i32, ptr %8, align 4, !tbaa !28
  br label %Vec_IntPushUniqueOrder.exit

Vec_IntPushUniqueOrder.exit:                      ; preds = %30, %Vec_IntPushOrder.exit.i, %12
  %.val = phi i32 [ %.val.pre, %Vec_IntPushOrder.exit.i ], [ %.val24, %12 ], [ %.val24, %30 ]
  %.pre.i22 = phi ptr [ %.pre.i23, %Vec_IntPushOrder.exit.i ], [ %13, %12 ], [ %13, %30 ]
  %63 = phi ptr [ %.pre.i23, %Vec_IntPushOrder.exit.i ], [ %14, %12 ], [ %14, %30 ]
  %indvars.iv.next = add nuw nsw i64 %indvars.iv, 1
  %64 = shl nsw i64 %indvars.iv.next, 2
  %65 = sext i32 %.val to i64
  %66 = icmp slt i64 %64, %65
  br i1 %66, label %12, label %._crit_edge, !llvm.loop !50

._crit_edge:                                      ; preds = %Vec_IntPushUniqueOrder.exit, %2
  %67 = getelementptr inbounds nuw i8, ptr %3, i64 8
  %68 = load ptr, ptr %67, align 8, !tbaa !41
  %.not.i = icmp eq ptr %68, null
  br i1 %.not.i, label %Vec_BitFree.exit, label %69

69:                                               ; preds = %._crit_edge
  tail call void @free(ptr noundef nonnull %68) #21
  br label %Vec_BitFree.exit

Vec_BitFree.exit:                                 ; preds = %._crit_edge, %69
  tail call void @free(ptr noundef nonnull %3) #21
  ret ptr %4
}